target datalayout = "e-m:e-p270:32:32-p271:32:32-p272:64:64-i64:64-i128:128-f80:128-n8:16:32:64-S128"
target triple = "x86_64-pc-linux-gnu"

%struct.DdManager = type { %struct.DdNode, ptr, ptr, ptr, ptr, ptr, ptr, ptr, i32, i32, double, double, double, i32, i32, i32, i32, i32, i32, ptr, ptr, %struct.DdSubtable, i32, i32, i32, i32, i32, i32, i32, double, i32, i32, i32, ptr, i64, double, i32, ptr, ptr, ptr, ptr, ptr, ptr, ptr, i32, ptr, ptr, ptr, ptr, ptr, ptr, i32, i32, i32, double, i32, i32, i32, i32, double, double, i32, i32, i32, i32, i32, i32, i32, i32, i32, ptr, ptr, i32, i32, i32, i32, i32, i32, ptr, ptr, ptr, ptr, ptr, ptr, ptr, ptr, i32, i64, i64, i64, i32, i64, i64, double, double, double, double, double, double, i32, ptr, ptr, i64 }
%struct.DdNode = type { i32, i32, ptr, %union.anon, i64 }
%union.anon = type { %struct.DdChildren }
%struct.DdChildren = type { ptr, ptr }
%struct.DdSubtable = type { ptr, i32, i32, i32, i32, i32, i32, i32, i32, i32, i32, i32 }

@.str.12 = private unnamed_addr constant [27 x i8] c"ID = %c0x%lx\09value = %-9g\0A\00", align 1
@.str.13 = private unnamed_addr constant [25 x i8] c"ID = %c0x%lx\09index = %u\09\00", align 1
@.str.14 = private unnamed_addr constant [10 x i8] c"T = %-9g\09\00", align 1
@.str.15 = private unnamed_addr constant [11 x i8] c"T = 0x%lx\09\00", align 1
@.str.16 = private unnamed_addr constant [12 x i8] c"E = %c%-9g\0A\00", align 1
@.str.17 = private unnamed_addr constant [13 x i8] c"E = %c0x%lx\0A\00", align 1

; Function Attrs: nounwind uwtable
define internal i32 @dp2(ptr noundef %0, ptr noundef %1, ptr noundef %2) #0 {
  %4 = alloca i32, align 4
  %5 = alloca ptr, align 8
  %6 = alloca ptr, align 8
  %7 = alloca ptr, align 8
  %8 = alloca ptr, align 8
  %9 = alloca ptr, align 8
  %10 = alloca ptr, align 8
  %11 = alloca i32, align 4
  %12 = alloca i32, align 4
  store ptr %0, ptr %5, align 8
  store ptr %1, ptr %6, align 8
  store ptr %2, ptr %7, align 8
  %13 = load ptr, ptr %6, align 8
  %14 = icmp eq ptr %13, null
  br i1 %14, label %15, label %16

15:                                               ; preds = %3
  store i32 0, ptr %4, align 4
  br label %162

16:                                               ; preds = %3
  %17 = load ptr, ptr %6, align 8
  %18 = ptrtoint ptr %17 to i64
  %19 = and i64 %18, -2
  %20 = inttoptr i64 %19 to ptr
  store ptr %20, ptr %8, align 8
  %21 = load ptr, ptr %8, align 8
  %22 = getelementptr inbounds %struct.DdNode, ptr %21, i32 0, i32 0
  %23 = load i32, ptr %22, align 8
  %24 = icmp eq i32 %23, 2147483647
  br i1 %24, label %25, label %42

25:                                               ; preds = %16
  %26 = load ptr, ptr %5, align 8
  %27 = getelementptr inbounds %struct.DdManager, ptr %26, i32 0, i32 84
  %28 = load ptr, ptr %27, align 8
  %29 = load ptr, ptr %6, align 8
  %30 = ptrtoint ptr %29 to i64
  %31 = and i64 %30, 1
  %32 = trunc i64 %31 to i32
  %33 = icmp ne i32 %32, 0
  %34 = select i1 %33, i32 33, i32 32
  %35 = load ptr, ptr %8, align 8
  %36 = ptrtoint ptr %35 to i64
  %37 = udiv i64 %36, 40
  %38 = load ptr, ptr %8, align 8
  %39 = getelementptr inbounds %struct.DdNode, ptr %38, i32 0, i32 3
  %40 = load double, ptr %39, align 8
  %41 = call i32 (ptr, ptr, ...) @fprintf(ptr noundef %28, ptr noundef @.str.12, i32 noundef %34, i64 noundef %37, double noundef %40) #6
  store i32 1, ptr %4, align 4
  br label %162

42:                                               ; preds = %16
  %43 = load ptr, ptr %7, align 8
  %44 = load ptr, ptr %8, align 8
  %45 = call i32 @st__lookup(ptr noundef %43, ptr noundef %44, ptr noundef null)
  %46 = icmp eq i32 %45, 1
  br i1 %46, label %47, label %48

47:                                               ; preds = %42
  store i32 1, ptr %4, align 4
  br label %162

48:                                               ; preds = %42
  %49 = load ptr, ptr %7, align 8
  %50 = load ptr, ptr %8, align 8
  %51 = call i32 @st__add_direct(ptr noundef %49, ptr noundef %50, ptr noundef null)
  %52 = icmp eq i32 %51, -10000
  br i1 %52, label %53, label %54

53:                                               ; preds = %48
  store i32 0, ptr %4, align 4
  br label %162

54:                                               ; preds = %48
  %55 = load ptr, ptr %5, align 8
  %56 = getelementptr inbounds %struct.DdManager, ptr %55, i32 0, i32 84
  %57 = load ptr, ptr %56, align 8
  %58 = load ptr, ptr %6, align 8
  %59 = ptrtoint ptr %58 to i64
  %60 = and i64 %59, 1
  %61 = trunc i64 %60 to i32
  %62 = icmp ne i32 %61, 0
  %63 = select i1 %62, i32 33, i32 32
  %64 = load ptr, ptr %8, align 8
  %65 = ptrtoint ptr %64 to i64
  %66 = udiv i64 %65, 40
  %67 = load ptr, ptr %8, align 8
  %68 = getelementptr inbounds %struct.DdNode, ptr %67, i32 0, i32 0
  %69 = load i32, ptr %68, align 8
  %70 = call i32 (ptr, ptr, ...) @fprintf(ptr noundef %57, ptr noundef @.str.13, i32 noundef %63, i64 noundef %66, i32 noundef %69) #6
  %71 = load ptr, ptr %8, align 8
  %72 = getelementptr inbounds %struct.DdNode, ptr %71, i32 0, i32 3
  %73 = getelementptr inbounds %struct.DdChildren, ptr %72, i32 0, i32 0
  %74 = load ptr, ptr %73, align 8
  store ptr %74, ptr %9, align 8
  %75 = load ptr, ptr %9, align 8
  %76 = getelementptr inbounds %struct.DdNode, ptr %75, i32 0, i32 0
  %77 = load i32, ptr %76, align 8
  %78 = icmp eq i32 %77, 2147483647
  br i1 %78, label %79, label %87

79:                                               ; preds = %54
  %80 = load ptr, ptr %5, align 8
  %81 = getelementptr inbounds %struct.DdManager, ptr %80, i32 0, i32 84
  %82 = load ptr, ptr %81, align 8
  %83 = load ptr, ptr %9, align 8
  %84 = getelementptr inbounds %struct.DdNode, ptr %83, i32 0, i32 3
  %85 = load double, ptr %84, align 8
  %86 = call i32 (ptr, ptr, ...) @fprintf(ptr noundef %82, ptr noundef @.str.14, double noundef %85) #6
  store i32 1, ptr %11, align 4
  br label %95

87:                                               ; preds = %54
  %88 = load ptr, ptr %5, align 8
  %89 = getelementptr inbounds %struct.DdManager, ptr %88, i32 0, i32 84
  %90 = load ptr, ptr %89, align 8
  %91 = load ptr, ptr %9, align 8
  %92 = ptrtoint ptr %91 to i64
  %93 = udiv i64 %92, 40
  %94 = call i32 (ptr, ptr, ...) @fprintf(ptr noundef %90, ptr noundef @.str.15, i64 noundef %93) #6
  store i32 0, ptr %11, align 4
  br label %95

95:                                               ; preds = %87, %79
  %96 = load ptr, ptr %8, align 8
  %97 = getelementptr inbounds %struct.DdNode, ptr %96, i32 0, i32 3
  %98 = getelementptr inbounds %struct.DdChildren, ptr %97, i32 0, i32 1
  %99 = load ptr, ptr %98, align 8
  store ptr %99, ptr %9, align 8
  %100 = load ptr, ptr %9, align 8
  %101 = ptrtoint ptr %100 to i64
  %102 = and i64 %101, -2
  %103 = inttoptr i64 %102 to ptr
  store ptr %103, ptr %10, align 8
  %104 = load ptr, ptr %10, align 8
  %105 = getelementptr inbounds %struct.DdNode, ptr %104, i32 0, i32 0
  %106 = load i32, ptr %105, align 8
  %107 = icmp eq i32 %106, 2147483647
  br i1 %107, label %108, label %122

108:                                              ; preds = %95
  %109 = load ptr, ptr %5, align 8
  %110 = getelementptr inbounds %struct.DdManager, ptr %109, i32 0, i32 84
  %111 = load ptr, ptr %110, align 8
  %112 = load ptr, ptr %9, align 8
  %113 = ptrtoint ptr %112 to i64
  %114 = and i64 %113, 1
  %115 = trunc i64 %114 to i32
  %116 = icmp ne i32 %115, 0
  %117 = select i1 %116, i32 33, i32 32
  %118 = load ptr, ptr %10, align 8
  %119 = getelementptr inbounds %struct.DdNode, ptr %118, i32 0, i32 3
  %120 = load double, ptr %119, align 8
  %121 = call i32 (ptr, ptr, ...) @fprintf(ptr noundef %111, ptr noundef @.str.16, i32 noundef %117, double noundef %120) #6
  store i32 1, ptr %12, align 4
  br label %136

122:                                              ; preds = %95
  %123 = load ptr, ptr %5, align 8
  %124 = getelementptr inbounds %struct.DdManager, ptr %123, i32 0, i32 84
  %125 = load ptr, ptr %124, align 8
  %126 = load ptr, ptr %9, align 8
  %127 = ptrtoint ptr %126 to i64
  %128 = and i64 %127, 1
  %129 = trunc i64 %128 to i32
  %130 = icmp ne i32 %129, 0
  %131 = select i1 %130, i32 33, i32 32
  %132 = load ptr, ptr %10, align 8
  %133 = ptrtoint ptr %132 to i64
  %134 = udiv i64 %133, 40
  %135 = call i32 (ptr, ptr, ...) @fprintf(ptr noundef %125, ptr noundef @.str.17, i32 noundef %131, i64 noundef %134) #6
  store i32 0, ptr %12, align 4
  br label %136

136:                                              ; preds = %122, %108
  %137 = load i32, ptr %12, align 4
  %138 = icmp eq i32 %137, 0
  br i1 %138, label %139, label %147

139:                                              ; preds = %136
  %140 = load ptr, ptr %5, align 8
  %141 = load ptr, ptr %10, align 8
  %142 = load ptr, ptr %7, align 8
  %143 = call i32 @dp2(ptr noundef %140, ptr noundef %141, ptr noundef %142)
  %144 = icmp eq i32 %143, 0
  br i1 %144, label %145, label %146

145:                                              ; preds = %139
  store i32 0, ptr %4, align 4
  br label %162

146:                                              ; preds = %139
  br label %147

147:                                              ; preds = %146, %136
  %148 = load i32, ptr %11, align 4
  %149 = icmp eq i32 %148, 0
  br i1 %149, label %150, label %161

150:                                              ; preds = %147
  %151 = load ptr, ptr %5, align 8
  %152 = load ptr, ptr %8, align 8
  %153 = getelementptr inbounds %struct.DdNode, ptr %152, i32 0, i32 3
  %154 = getelementptr inbounds %struct.DdChildren, ptr %153, i32 0, i32 0
  %155 = load ptr, ptr %154, align 8
  %156 = load ptr, ptr %7, align 8
  %157 = call i32 @dp2(ptr noundef %151, ptr noundef %155, ptr noundef %156)
  %158 = icmp eq i32 %157, 0
  br i1 %158, label %159, label %160

159:                                              ; preds = %150
  store i32 0, ptr %4, align 4
  br label %162

160:                                              ; preds = %150
  br label %161

161:                                              ; preds = %160, %147
  store i32 1, ptr %4, align 4
  br label %162

162:                                              ; preds = %161, %159, %145, %53, %47, %25, %15
  %163 = load i32, ptr %4, align 4
  ret i32 %163
}