; Function Attrs: nounwind uwtable
define internal fastcc range(i32 0, 2) i32 @dp2(ptr noundef %0, ptr noundef %1, ptr noundef nonnull %2) unnamed_addr #0 {
  %4 = icmp eq ptr %1, null
  br i1 %4, label %70, label %5

5:                                                ; preds = %3
  %6 = ptrtoint ptr %1 to i64
  %7 = and i64 %6, -2
  %8 = inttoptr i64 %7 to ptr
  %9 = load i32, ptr %8, align 8
  %10 = icmp eq i32 %9, 2147483647
  br i1 %10, label %11, label %20

11:                                               ; preds = %5
  %12 = getelementptr inbounds nuw i8, ptr %0, i64 608
  %13 = load ptr, ptr %12, align 8
  %14 = and i64 %6, 1
  %.not45 = icmp eq i64 %14, 0
  %15 = select i1 %.not45, i32 32, i32 33
  %16 = udiv i64 %6, 40
  %17 = getelementptr inbounds nuw i8, ptr %8, i64 16
  %18 = load double, ptr %17, align 8
  %19 = tail call i32 (ptr, ptr, ...) @fprintf(ptr noundef %13, ptr noundef nonnull @.str.12, i32 noundef %15, i64 noundef %16, double noundef %18) #23
  br label %70

20:                                               ; preds = %5
  %21 = tail call i32 @st__lookup(ptr noundef nonnull %2, ptr noundef nonnull %8, ptr noundef null) #23
  %22 = icmp eq i32 %21, 1
  br i1 %22, label %70, label %23

23:                                               ; preds = %20
  %24 = tail call i32 @st__add_direct(ptr noundef nonnull %2, ptr noundef nonnull %8, ptr noundef null) #23
  %25 = icmp eq i32 %24, -10000
  br i1 %25, label %70, label %26

26:                                               ; preds = %23
  %27 = getelementptr inbounds nuw i8, ptr %0, i64 608
  %28 = load ptr, ptr %27, align 8
  %29 = and i64 %6, 1
  %.not = icmp eq i64 %29, 0
  %30 = select i1 %.not, i32 32, i32 33
  %31 = udiv i64 %6, 40
  %32 = load i32, ptr %8, align 8
  %33 = tail call i32 (ptr, ptr, ...) @fprintf(ptr noundef %28, ptr noundef nonnull @.str.13, i32 noundef %30, i64 noundef %31, i32 noundef %32) #23
  %34 = getelementptr inbounds nuw i8, ptr %8, i64 16
  %35 = load ptr, ptr %34, align 8
  %36 = load i32, ptr %35, align 8
  %.not44 = icmp eq i32 %36, 2147483647
  %37 = load ptr, ptr %27, align 8
  br i1 %.not44, label %38, label %42

38:                                               ; preds = %26
  %39 = getelementptr inbounds nuw i8, ptr %35, i64 16
  %40 = load double, ptr %39, align 8
  %41 = tail call i32 (ptr, ptr, ...) @fprintf(ptr noundef %37, ptr noundef nonnull @.str.14, double noundef %40) #23
  br label %46

42:                                               ; preds = %26
  %43 = ptrtoint ptr %35 to i64
  %44 = udiv i64 %43, 40
  %45 = tail call i32 (ptr, ptr, ...) @fprintf(ptr noundef %37, ptr noundef nonnull @.str.15, i64 noundef %44) #23
  br label %46

46:                                               ; preds = %42, %38
  %47 = getelementptr inbounds nuw i8, ptr %8, i64 24
  %48 = load ptr, ptr %47, align 8
  %49 = ptrtoint ptr %48 to i64
  %50 = and i64 %49, -2
  %51 = inttoptr i64 %50 to ptr
  %52 = load i32, ptr %51, align 8
  %.not43 = icmp eq i32 %52, 2147483647
  %53 = load ptr, ptr %27, align 8
  %54 = and i64 %49, 1
  %.not42 = icmp eq i64 %54, 0
  %55 = select i1 %.not42, i32 32, i32 33
  br i1 %.not43, label %.thread, label %59

.thread:                                          ; preds = %46
  %56 = getelementptr inbounds nuw i8, ptr %51, i64 16
  %57 = load double, ptr %56, align 8
  %58 = tail call i32 (ptr, ptr, ...) @fprintf(ptr noundef %53, ptr noundef nonnull @.str.16, i32 noundef %55, double noundef %57) #23
  br label %64

59:                                               ; preds = %46
  %60 = udiv i64 %49, 40
  %61 = tail call i32 (ptr, ptr, ...) @fprintf(ptr noundef %53, ptr noundef nonnull @.str.17, i32 noundef %55, i64 noundef %60) #23
  %62 = tail call fastcc i32 @dp2(ptr noundef nonnull %0, ptr noundef nonnull %51, ptr noundef %2)
  %63 = icmp eq i32 %62, 0
  br i1 %63, label %70, label %64

64:                                               ; preds = %.thread, %59
  br i1 %.not44, label %69, label %65

65:                                               ; preds = %64
  %66 = load ptr, ptr %34, align 8
  %67 = tail call fastcc i32 @dp2(ptr noundef nonnull %0, ptr noundef %66, ptr noundef %2)
  %68 = icmp eq i32 %67, 0
  br i1 %68, label %70, label %69

69:                                               ; preds = %65, %64
  br label %70

70:                                               ; preds = %65, %59, %23, %20, %3, %69, %11
  %.039 = phi i32 [ 1, %11 ], [ 1, %69 ], [ 0, %3 ], [ 1, %20 ], [ 0, %23 ], [ 0, %59 ], [ 0, %65 ]
  ret i32 %.039
}